; Function Attrs: mustprogress uwtable
define noundef zeroext i1 @_ZN10StringList9GetStringEPwmi(ptr nocapture noundef nonnull align 8 dereferenceable(184) %0, ptr noundef %1, i64 noundef %2, i32 noundef %3) local_unnamed_addr #2 align 2 {
  %5 = getelementptr inbounds i8, ptr %0, i64 176
  %6 = load i64, ptr %5, align 8
  %7 = icmp ult i64 %6, 16
  br i1 %7, label %8, label %_ZN10StringList12SavePositionEv.exit

8:                                                ; preds = %4
  %9 = getelementptr inbounds i8, ptr %0, i64 32
  %10 = load i64, ptr %9, align 8
  %11 = getelementptr inbounds i8, ptr %0, i64 48
  %12 = getelementptr inbounds [16 x i64], ptr %11, i64 0, i64 %6
  store i64 %10, ptr %12, align 8
  %13 = load i64, ptr %5, align 8
  %14 = add i64 %13, 1
  store i64 %14, ptr %5, align 8
  br label %_ZN10StringList12SavePositionEv.exit

_ZN10StringList12SavePositionEv.exit:             ; preds = %4, %8
  %15 = phi i64 [ %6, %4 ], [ %14, %8 ]
  %16 = getelementptr inbounds i8, ptr %0, i64 32
  store i64 0, ptr %16, align 8
  %17 = icmp slt i32 %3, 0
  br i1 %17, label %_ZN10StringList9GetStringEPwm.exit.thread, label %.lr.ph

.lr.ph:                                           ; preds = %_ZN10StringList12SavePositionEv.exit
  %18 = getelementptr inbounds i8, ptr %0, i64 8
  br label %19

19:                                               ; preds = %.lr.ph, %_ZN10StringList9GetStringEPwm.exit
  %.045 = phi i32 [ %3, %.lr.ph ], [ %22, %_ZN10StringList9GetStringEPwm.exit ]
  %20 = load i64, ptr %16, align 8
  %21 = load i64, ptr %18, align 8
  %.not.i.i = icmp ult i64 %20, %21
  br i1 %.not.i.i, label %_ZN10StringList9GetStringEPwm.exit, label %_ZN10StringList9GetStringEPwm.exit.thread.loopexit

_ZN10StringList9GetStringEPwm.exit:               ; preds = %19
  %22 = add nsw i32 %.045, -1
  %23 = load ptr, ptr %0, align 8
  %24 = getelementptr inbounds i32, ptr %23, i64 %20
  %25 = tail call i64 @wcslen(ptr noundef nonnull %24) #15
  %26 = add nuw i64 %20, 1
  %27 = add i64 %26, %25
  store i64 %27, ptr %16, align 8
  tail call void @_Z8wcsncpyzPwPKwm(ptr noundef %1, ptr noundef %24, i64 noundef %2)
  %28 = icmp slt i32 %.045, 1
  br i1 %28, label %_ZN10StringList9GetStringEPwm.exit.thread.loopexit, label %19

_ZN10StringList9GetStringEPwm.exit.thread.loopexit: ; preds = %19, %_ZN10StringList9GetStringEPwm.exit
  %.pre = load i64, ptr %5, align 8
  br label %_ZN10StringList9GetStringEPwm.exit.thread

_ZN10StringList9GetStringEPwm.exit.thread:        ; preds = %_ZN10StringList9GetStringEPwm.exit.thread.loopexit, %_ZN10StringList12SavePositionEv.exit
  %29 = phi i64 [ %15, %_ZN10StringList12SavePositionEv.exit ], [ %.pre, %_ZN10StringList9GetStringEPwm.exit.thread.loopexit ]
  %.lcssa = phi i1 [ true, %_ZN10StringList12SavePositionEv.exit ], [ %.not.i.i, %_ZN10StringList9GetStringEPwm.exit.thread.loopexit ]
  %.not.i = icmp eq i64 %29, 0
  br i1 %.not.i, label %_ZN10StringList15RestorePositionEv.exit, label %30

30:                                               ; preds = %_ZN10StringList9GetStringEPwm.exit.thread
  %31 = add i64 %29, -1
  store i64 %31, ptr %5, align 8
  %32 = getelementptr inbounds i8, ptr %0, i64 48
  %33 = getelementptr inbounds [16 x i64], ptr %32, i64 0, i64 %31
  %34 = load i64, ptr %33, align 8
  store i64 %34, ptr %16, align 8
  br label %_ZN10StringList15RestorePositionEv.exit

_ZN10StringList15RestorePositionEv.exit:          ; preds = %_ZN10StringList9GetStringEPwm.exit.thread, %30
  ret i1 %.lcssa
}